; Function Attrs: mustprogress nofree norecurse nosync nounwind willreturn memory(argmem: write) uwtable
define void @_ZN6icu_776number9Precision8currencyE14UCurrencyUsage(ptr dead_on_unwind noalias writable writeonly sret(%"class.icu_77::number::CurrencyPrecision") align 8 captures(none) initializes((0, 4), (8, 28)) %0, i32 noundef %1) local_unnamed_addr #11 align 2 {
  %.sroa.5.0..sroa_idx.i = getelementptr inbounds nuw i8, ptr %0, i64 12
  tail call void @llvm.memset.p0.i64(ptr noundef nonnull align 4 dereferenceable(12) %.sroa.5.0..sroa_idx.i, i8 0, i64 12, i1 false), !alias.scope !62
  store i32 8, ptr %0, align 8, !tbaa !27, !alias.scope !62
  %3 = getelementptr inbounds nuw i8, ptr %0, i64 8
  store i32 %1, ptr %3, align 8, !alias.scope !62
  %4 = getelementptr inbounds nuw i8, ptr %0, i64 24
  store i32 0, ptr %4, align 8, !tbaa !31, !alias.scope !62
  ret void
}